target datalayout = "e-m:e-p270:32:32-p271:32:32-p272:64:64-i64:64-i128:128-f80:128-n8:16:32:64-S128"
target triple = "x86_64-pc-linux-gnu"

%struct.ic_completion_env_s = type { ptr, ptr, i64, ptr, ptr, ptr }
%struct.filename_closure_s = type { ptr, ptr, i8 }

@.str.1 = private unnamed_addr constant [3 x i8] c"'\22\00", align 1
@.str.2 = private unnamed_addr constant [2 x i8] c".\00", align 1
@.str.3 = private unnamed_addr constant [1 x i8] zeroinitializer, align 1

; Function Attrs: nounwind uwtable
define internal signext i8 @ic_dirsep() #0 {
  ret i8 47
}

; Function Attrs: nounwind uwtable
define dso_local void @ic_complete_filename(ptr noundef %0, ptr noundef %1, i8 noundef signext %2, ptr noundef %3, ptr noundef %4) #0 {
  %6 = alloca ptr, align 8
  %7 = alloca ptr, align 8
  %8 = alloca i8, align 1
  %9 = alloca ptr, align 8
  %10 = alloca ptr, align 8
  %11 = alloca %struct.filename_closure_s, align 8
  store ptr %0, ptr %6, align 8, !tbaa !49
  store ptr %1, ptr %7, align 8, !tbaa !11
  store i8 %2, ptr %8, align 1, !tbaa !13
  store ptr %3, ptr %9, align 8, !tbaa !11
  store ptr %4, ptr %10, align 8, !tbaa !11
  %12 = load ptr, ptr %9, align 8, !tbaa !11
  %13 = icmp eq ptr %12, null
  br i1 %13, label %14, label %15

14:                                               ; preds = %5
  store ptr @.str.2, ptr %9, align 8, !tbaa !11
  br label %15

15:                                               ; preds = %14, %5
  %16 = load ptr, ptr %10, align 8, !tbaa !11
  %17 = icmp eq ptr %16, null
  br i1 %17, label %18, label %19

18:                                               ; preds = %15
  store ptr @.str.3, ptr %10, align 8, !tbaa !11
  br label %19

19:                                               ; preds = %18, %15
  %20 = load i8, ptr %8, align 1, !tbaa !13
  %21 = sext i8 %20 to i32
  %22 = icmp eq i32 %21, 0
  br i1 %22, label %23, label %25

23:                                               ; preds = %19
  %24 = call signext i8 @ic_dirsep()
  store i8 %24, ptr %8, align 1, !tbaa !13
  br label %25

25:                                               ; preds = %23, %19
  call void @llvm.lifetime.start.p0(i64 24, ptr %11) #13
  %26 = load i8, ptr %8, align 1, !tbaa !13
  %27 = getelementptr inbounds nuw %struct.filename_closure_s, ptr %11, i32 0, i32 2
  store i8 %26, ptr %27, align 8, !tbaa !92
  %28 = load ptr, ptr %9, align 8, !tbaa !11
  %29 = getelementptr inbounds nuw %struct.filename_closure_s, ptr %11, i32 0, i32 0
  store ptr %28, ptr %29, align 8, !tbaa !94
  %30 = load ptr, ptr %10, align 8, !tbaa !11
  %31 = getelementptr inbounds nuw %struct.filename_closure_s, ptr %11, i32 0, i32 1
  store ptr %30, ptr %31, align 8, !tbaa !95
  %32 = load ptr, ptr %6, align 8, !tbaa !49
  %33 = getelementptr inbounds nuw %struct.ic_completion_env_s, ptr %32, i32 0, i32 3
  store ptr %11, ptr %33, align 8, !tbaa !96
  %34 = load ptr, ptr %6, align 8, !tbaa !49
  %35 = load ptr, ptr %7, align 8, !tbaa !11
  call void @ic_complete_qword_ex(ptr noundef %34, ptr noundef %35, ptr noundef @filename_completer, ptr noundef @ic_char_is_filename_letter, i8 noundef signext 92, ptr noundef @.str.1)
  call void @llvm.lifetime.end.p0(i64 24, ptr %11) #13
  ret void
}