; Function Attrs: nounwind uwtable
define dso_local void @ic_complete_filename(ptr noundef initializes((24, 32)) %0, ptr noundef %1, i8 noundef signext %2, ptr noundef %3, ptr noundef %4) local_unnamed_addr #0 {
  %6 = alloca %struct.filename_closure_s, align 8
  %7 = icmp eq i8 %2, 0
  %spec.select = select i1 %7, i8 47, i8 %2
  %8 = icmp eq ptr %4, null
  %spec.store.select1 = select i1 %8, ptr @.str.3, ptr %4
  %9 = icmp eq ptr %3, null
  %spec.store.select = select i1 %9, ptr @.str.2, ptr %3
  call void @llvm.lifetime.start.p0(i64 24, ptr nonnull %6) #32
  %10 = getelementptr inbounds nuw i8, ptr %6, i64 16
  store i8 %spec.select, ptr %10, align 8, !tbaa !94
  store ptr %spec.store.select, ptr %6, align 8, !tbaa !96
  %11 = getelementptr inbounds nuw i8, ptr %6, i64 8
  store ptr %spec.store.select1, ptr %11, align 8, !tbaa !97
  %12 = getelementptr inbounds nuw i8, ptr %0, i64 24
  store ptr %6, ptr %12, align 8, !tbaa !98
  call void @ic_complete_qword_ex(ptr noundef %0, ptr noundef %1, ptr noundef nonnull @filename_completer, ptr noundef nonnull @ic_char_is_filename_letter, i8 noundef signext 92, ptr noundef nonnull @.str.1)
  call void @llvm.lifetime.end.p0(i64 24, ptr nonnull %6) #32
  ret void
}